target datalayout = "e-m:e-p270:32:32-p271:32:32-p272:64:64-i64:64-i128:128-f80:128-n8:16:32:64-S128"
target triple = "x86_64-pc-linux-gnu"

%struct.foreach_node_gpu_args_t = type { i64, i32 }

; Function Attrs: nounwind uwtable
define internal i64 @_get_max_node_gpu_cnt(ptr noundef %0, ptr noundef %1) #0 {
  %3 = alloca ptr, align 8
  %4 = alloca ptr, align 8
  %5 = alloca %struct.foreach_node_gpu_args_t, align 8
  %6 = alloca i64, align 8
  %7 = alloca i32, align 4
  store ptr %0, ptr %3, align 8
  store ptr %1, ptr %4, align 8
  call void @llvm.lifetime.start.p0(i64 16, ptr %5) #8
  call void @llvm.lifetime.start.p0(i64 8, ptr %6) #8
  store i64 0, ptr %6, align 8
  call void @llvm.lifetime.start.p0(i64 4, ptr %7) #8
  store i32 0, ptr %7, align 4
  br label %8

8:                                                ; preds = %33, %2
  %9 = load ptr, ptr %3, align 8
  %10 = load i32, ptr %7, align 4
  %11 = sext i32 %10 to i64
  %12 = call i64 @bit_ffs_from_bit(ptr noundef %9, i64 noundef %11)
  %13 = trunc i64 %12 to i32
  store i32 %13, ptr %7, align 4
  %14 = icmp sge i32 %13, 0
  br i1 %14, label %16, label %15

15:                                               ; preds = %8
  call void @llvm.lifetime.end.p0(i64 4, ptr %7) #8
  br label %36

16:                                               ; preds = %8
  %17 = getelementptr inbounds nuw %struct.foreach_node_gpu_args_t, ptr %5, i32 0, i32 0
  store i64 0, ptr %17, align 8
  %18 = load i32, ptr %7, align 4
  %19 = getelementptr inbounds nuw %struct.foreach_node_gpu_args_t, ptr %5, i32 0, i32 1
  store i32 %18, ptr %19, align 8
  %20 = load ptr, ptr %4, align 8
  %21 = call i32 @list_for_each(ptr noundef %20, ptr noundef @_get_node_gpu_sum, ptr noundef %5)
  %22 = load i64, ptr %6, align 8
  %23 = getelementptr inbounds nuw %struct.foreach_node_gpu_args_t, ptr %5, i32 0, i32 0
  %24 = load i64, ptr %23, align 8
  %25 = icmp ugt i64 %22, %24
  br i1 %25, label %26, label %28

26:                                               ; preds = %16
  %27 = load i64, ptr %6, align 8
  br label %31

28:                                               ; preds = %16
  %29 = getelementptr inbounds nuw %struct.foreach_node_gpu_args_t, ptr %5, i32 0, i32 0
  %30 = load i64, ptr %29, align 8
  br label %31

31:                                               ; preds = %28, %26
  %32 = phi i64 [ %27, %26 ], [ %30, %28 ]
  store i64 %32, ptr %6, align 8
  br label %33

33:                                               ; preds = %31
  %34 = load i32, ptr %7, align 4
  %35 = add nsw i32 %34, 1
  store i32 %35, ptr %7, align 4
  br label %8, !llvm.loop !57

36:                                               ; preds = %15
  %37 = load i64, ptr %6, align 8
  call void @llvm.lifetime.end.p0(i64 8, ptr %6) #8
  call void @llvm.lifetime.end.p0(i64 16, ptr %5) #8
  ret i64 %37
}