; Function Attrs: nounwind uwtable
define internal fastcc i64 @_get_max_node_gpu_cnt(ptr noundef %0, ptr noundef nonnull %1) unnamed_addr #0 {
  %3 = alloca %struct.foreach_node_gpu_args_t, align 8
  call void @llvm.lifetime.start.p0(i64 16, ptr nonnull %3) #14
  %4 = tail call i64 @bit_ffs_from_bit(ptr noundef %0, i64 noundef 0) #14
  %5 = trunc i64 %4 to i32
  %6 = icmp sgt i32 %5, -1
  br i1 %6, label %.lr.ph, label %._crit_edge

.lr.ph:                                           ; preds = %2
  %7 = getelementptr inbounds nuw i8, ptr %3, i64 8
  br label %8

._crit_edge:                                      ; preds = %8, %2
  %.07.lcssa = phi i64 [ 0, %2 ], [ %13, %8 ]
  call void @llvm.lifetime.end.p0(i64 16, ptr nonnull %3) #14
  ret i64 %.07.lcssa

8:                                                ; preds = %.lr.ph, %8
  %9 = phi i32 [ %5, %.lr.ph ], [ %17, %8 ]
  %10 = phi i64 [ %4, %.lr.ph ], [ %16, %8 ]
  %.079 = phi i64 [ 0, %.lr.ph ], [ %13, %8 ]
  store i64 0, ptr %3, align 8
  store i32 %9, ptr %7, align 8
  %11 = call i32 @list_for_each(ptr noundef nonnull %1, ptr noundef nonnull @_get_node_gpu_sum, ptr noundef nonnull %3) #14
  %12 = load i64, ptr %3, align 8
  %13 = call i64 @llvm.umax.i64(i64 %.079, i64 %12)
  %14 = add nuw nsw i64 %10, 1
  %15 = and i64 %14, 4294967295
  %16 = call i64 @bit_ffs_from_bit(ptr noundef %0, i64 noundef %15) #14
  %17 = trunc i64 %16 to i32
  %18 = icmp sgt i32 %17, -1
  br i1 %18, label %8, label %._crit_edge, !llvm.loop !61
}